target datalayout = "e-m:e-p270:32:32-p271:32:32-p272:64:64-i64:64-i128:128-f80:128-n8:16:32:64-S128"
target triple = "x86_64-pc-linux-gnu"

; Function Attrs: nounwind uwtable
define i32 @GetLength_ex(ptr noundef %0, ptr noundef %1, ptr noundef %2, i32 noundef %3, i32 noundef %4) #0 {
  %6 = alloca i32, align 4
  %7 = alloca ptr, align 8
  %8 = alloca ptr, align 8
  %9 = alloca ptr, align 8
  %10 = alloca i32, align 4
  %11 = alloca i32, align 4
  %12 = alloca i32, align 4
  %13 = alloca i32, align 4
  %14 = alloca i8, align 1
  %15 = alloca i32, align 4
  %16 = alloca i32, align 4
  %17 = alloca i32, align 4
  store ptr %0, ptr %7, align 8, !tbaa !7
  store ptr %1, ptr %8, align 8, !tbaa !18
  store ptr %2, ptr %9, align 8, !tbaa !18
  store i32 %3, ptr %10, align 4, !tbaa !3
  store i32 %4, ptr %11, align 4, !tbaa !3
  call void @llvm.lifetime.start.p0(i64 4, ptr %12) #9
  store i32 0, ptr %12, align 4, !tbaa !3
  call void @llvm.lifetime.start.p0(i64 4, ptr %13) #9
  %18 = load ptr, ptr %8, align 8, !tbaa !18
  %19 = load i32, ptr %18, align 4, !tbaa !3
  store i32 %19, ptr %13, align 4, !tbaa !3
  call void @llvm.lifetime.start.p0(i64 1, ptr %14) #9
  %20 = load ptr, ptr %9, align 8, !tbaa !18
  store i32 0, ptr %20, align 4, !tbaa !3
  %21 = load i32, ptr %13, align 4, !tbaa !3
  %22 = add i32 %21, 1
  %23 = load i32, ptr %10, align 4, !tbaa !3
  %24 = icmp ugt i32 %22, %23
  br i1 %24, label %25, label %29

25:                                               ; preds = %5
  br label %26

26:                                               ; preds = %25
  br label %27

27:                                               ; preds = %26
  br label %28

28:                                               ; preds = %27
  store i32 -132, ptr %6, align 4
  store i32 1, ptr %15, align 4
  br label %131

29:                                               ; preds = %5
  %30 = load ptr, ptr %7, align 8, !tbaa !7
  %31 = load i32, ptr %13, align 4, !tbaa !3
  %32 = add i32 %31, 1
  store i32 %32, ptr %13, align 4, !tbaa !3
  %33 = zext i32 %31 to i64
  %34 = getelementptr inbounds nuw i8, ptr %30, i64 %33
  %35 = load i8, ptr %34, align 1, !tbaa !10
  store i8 %35, ptr %14, align 1, !tbaa !10
  %36 = load i8, ptr %14, align 1, !tbaa !10
  %37 = zext i8 %36 to i32
  %38 = icmp sge i32 %37, 128
  br i1 %38, label %39, label %105

39:                                               ; preds = %29
  call void @llvm.lifetime.start.p0(i64 4, ptr %16) #9
  %40 = load i8, ptr %14, align 1, !tbaa !10
  %41 = zext i8 %40 to i32
  %42 = and i32 %41, 127
  store i32 %42, ptr %16, align 4, !tbaa !3
  call void @llvm.lifetime.start.p0(i64 4, ptr %17) #9
  %43 = load i8, ptr %14, align 1, !tbaa !10
  %44 = zext i8 %43 to i32
  %45 = icmp eq i32 %44, 128
  br i1 %45, label %46, label %47

46:                                               ; preds = %39
  store i32 0, ptr %17, align 4, !tbaa !3
  br label %65

47:                                               ; preds = %39
  %48 = load i32, ptr %16, align 4, !tbaa !3
  %49 = icmp eq i32 %48, 1
  br i1 %49, label %50, label %51

50:                                               ; preds = %47
  store i32 128, ptr %17, align 4, !tbaa !3
  br label %64

51:                                               ; preds = %47
  %52 = load i32, ptr %16, align 4, !tbaa !3
  %53 = icmp sgt i32 %52, 4
  br i1 %53, label %54, label %58

54:                                               ; preds = %51
  br label %55

55:                                               ; preds = %54
  br label %56

56:                                               ; preds = %55
  br label %57

57:                                               ; preds = %56
  store i32 -140, ptr %6, align 4
  store i32 1, ptr %15, align 4
  br label %102

58:                                               ; preds = %51
  %59 = load i32, ptr %16, align 4, !tbaa !3
  %60 = sub nsw i32 %59, 1
  %61 = mul nsw i32 %60, 8
  %62 = shl i32 1, %61
  store i32 %62, ptr %17, align 4, !tbaa !3
  br label %63

63:                                               ; preds = %58
  br label %64

64:                                               ; preds = %63, %50
  br label %65

65:                                               ; preds = %64, %46
  %66 = load i32, ptr %13, align 4, !tbaa !3
  %67 = load i32, ptr %16, align 4, !tbaa !3
  %68 = add i32 %66, %67
  %69 = load i32, ptr %10, align 4, !tbaa !3
  %70 = icmp ugt i32 %68, %69
  br i1 %70, label %71, label %75

71:                                               ; preds = %65
  br label %72

72:                                               ; preds = %71
  br label %73

73:                                               ; preds = %72
  br label %74

74:                                               ; preds = %73
  store i32 -132, ptr %6, align 4
  store i32 1, ptr %15, align 4
  br label %102

75:                                               ; preds = %65
  br label %76

76:                                               ; preds = %80, %75
  %77 = load i32, ptr %16, align 4, !tbaa !3
  %78 = add nsw i32 %77, -1
  store i32 %78, ptr %16, align 4, !tbaa !3
  %79 = icmp ne i32 %77, 0
  br i1 %79, label %80, label %92

80:                                               ; preds = %76
  %81 = load ptr, ptr %7, align 8, !tbaa !7
  %82 = load i32, ptr %13, align 4, !tbaa !3
  %83 = add i32 %82, 1
  store i32 %83, ptr %13, align 4, !tbaa !3
  %84 = zext i32 %82 to i64
  %85 = getelementptr inbounds nuw i8, ptr %81, i64 %84
  %86 = load i8, ptr %85, align 1, !tbaa !10
  store i8 %86, ptr %14, align 1, !tbaa !10
  %87 = load i32, ptr %12, align 4, !tbaa !3
  %88 = shl i32 %87, 8
  %89 = load i8, ptr %14, align 1, !tbaa !10
  %90 = zext i8 %89 to i32
  %91 = or i32 %88, %90
  store i32 %91, ptr %12, align 4, !tbaa !3
  br label %76, !llvm.loop !50

92:                                               ; preds = %76
  %93 = load i32, ptr %12, align 4, !tbaa !3
  %94 = icmp slt i32 %93, 0
  br i1 %94, label %95, label %96

95:                                               ; preds = %92
  store i32 -140, ptr %6, align 4
  store i32 1, ptr %15, align 4
  br label %102

96:                                               ; preds = %92
  %97 = load i32, ptr %12, align 4, !tbaa !3
  %98 = load i32, ptr %17, align 4, !tbaa !3
  %99 = icmp slt i32 %97, %98
  br i1 %99, label %100, label %101

100:                                              ; preds = %96
  store i32 -140, ptr %6, align 4
  store i32 1, ptr %15, align 4
  br label %102

101:                                              ; preds = %96
  store i32 0, ptr %15, align 4
  br label %102

102:                                              ; preds = %101, %100, %95, %74, %57
  call void @llvm.lifetime.end.p0(i64 4, ptr %17) #9
  call void @llvm.lifetime.end.p0(i64 4, ptr %16) #9
  %103 = load i32, ptr %15, align 4
  switch i32 %103, label %131 [
    i32 0, label %104
  ]

104:                                              ; preds = %102
  br label %108

105:                                              ; preds = %29
  %106 = load i8, ptr %14, align 1, !tbaa !10
  %107 = zext i8 %106 to i32
  store i32 %107, ptr %12, align 4, !tbaa !3
  br label %108

108:                                              ; preds = %105, %104
  %109 = load i32, ptr %11, align 4, !tbaa !3
  %110 = icmp ne i32 %109, 0
  br i1 %110, label %111, label %121

111:                                              ; preds = %108
  %112 = load i32, ptr %13, align 4, !tbaa !3
  %113 = load i32, ptr %12, align 4, !tbaa !3
  %114 = add i32 %112, %113
  %115 = load i32, ptr %10, align 4, !tbaa !3
  %116 = icmp ugt i32 %114, %115
  br i1 %116, label %117, label %121

117:                                              ; preds = %111
  br label %118

118:                                              ; preds = %117
  br label %119

119:                                              ; preds = %118
  br label %120

120:                                              ; preds = %119
  store i32 -132, ptr %6, align 4
  store i32 1, ptr %15, align 4
  br label %131

121:                                              ; preds = %111, %108
  %122 = load i32, ptr %13, align 4, !tbaa !3
  %123 = load ptr, ptr %8, align 8, !tbaa !18
  store i32 %122, ptr %123, align 4, !tbaa !3
  %124 = load i32, ptr %12, align 4, !tbaa !3
  %125 = icmp sgt i32 %124, 0
  br i1 %125, label %126, label %129

126:                                              ; preds = %121
  %127 = load i32, ptr %12, align 4, !tbaa !3
  %128 = load ptr, ptr %9, align 8, !tbaa !18
  store i32 %127, ptr %128, align 4, !tbaa !3
  br label %129

129:                                              ; preds = %126, %121
  %130 = load i32, ptr %12, align 4, !tbaa !3
  store i32 %130, ptr %6, align 4
  store i32 1, ptr %15, align 4
  br label %131

131:                                              ; preds = %129, %120, %102, %28
  call void @llvm.lifetime.end.p0(i64 1, ptr %14) #9
  call void @llvm.lifetime.end.p0(i64 4, ptr %13) #9
  call void @llvm.lifetime.end.p0(i64 4, ptr %12) #9
  %132 = load i32, ptr %6, align 4
  ret i32 %132
}

; Function Attrs: nounwind uwtable
define i32 @GetLength(ptr noundef %0, ptr noundef %1, ptr noundef %2, i32 noundef %3) #0 {
  %5 = alloca ptr, align 8
  %6 = alloca ptr, align 8
  %7 = alloca ptr, align 8
  %8 = alloca i32, align 4
  store ptr %0, ptr %5, align 8, !tbaa !7
  store ptr %1, ptr %6, align 8, !tbaa !18
  store ptr %2, ptr %7, align 8, !tbaa !18
  store i32 %3, ptr %8, align 4, !tbaa !3
  %9 = load ptr, ptr %5, align 8, !tbaa !7
  %10 = load ptr, ptr %6, align 8, !tbaa !18
  %11 = load ptr, ptr %7, align 8, !tbaa !18
  %12 = load i32, ptr %8, align 4, !tbaa !3
  %13 = call i32 @GetLength_ex(ptr noundef %9, ptr noundef %10, ptr noundef %11, i32 noundef %12, i32 noundef 1)
  ret i32 %13
}