; Function Attrs: nofree norecurse nosync nounwind memory(argmem: readwrite) uwtable
define range(i32 -140, -2147483648) i32 @GetLength(ptr noundef readonly captures(none) %0, ptr noundef captures(none) %1, ptr noundef writeonly captures(none) initializes((0, 4)) %2, i32 noundef %3) local_unnamed_addr #6 {
  %5 = load i32, ptr %1, align 4, !tbaa !22
  store i32 0, ptr %2, align 4, !tbaa !22
  %6 = add i32 %5, 1
  %7 = icmp ugt i32 %6, %3
  br i1 %7, label %GetLength_ex.exit, label %8

8:                                                ; preds = %4
  %9 = zext i32 %5 to i64
  %10 = getelementptr inbounds nuw i8, ptr %0, i64 %9
  %11 = load i8, ptr %10, align 1, !tbaa !3
  %12 = zext i8 %11 to i32
  %13 = icmp slt i8 %11, 0
  br i1 %13, label %14, label %41

14:                                               ; preds = %8
  %15 = and i32 %12, 127
  %16 = icmp eq i8 %11, -128
  br i1 %16, label %25, label %17

17:                                               ; preds = %14
  %18 = icmp eq i32 %15, 1
  br i1 %18, label %.thread63.i, label %19

19:                                               ; preds = %17
  %20 = icmp samesign ugt i32 %15, 4
  br i1 %20, label %GetLength_ex.exit, label %21

21:                                               ; preds = %19
  %22 = shl nuw nsw i32 %15, 3
  %23 = add nsw i32 %22, -8
  %24 = shl nuw nsw i32 1, %23
  br label %25

25:                                               ; preds = %21, %14
  %.0.i = phi i32 [ %24, %21 ], [ 0, %14 ]
  %26 = add i32 %15, %6
  %27 = icmp ugt i32 %26, %3
  br i1 %27, label %GetLength_ex.exit, label %.preheader.i

.thread63.i:                                      ; preds = %17
  %28 = add i32 %5, 2
  %29 = icmp ugt i32 %28, %3
  br i1 %29, label %GetLength_ex.exit, label %.lr.ph.preheader.i

.preheader.i:                                     ; preds = %25
  %.not57.i = icmp eq i32 %15, 0
  br i1 %.not57.i, label %._crit_edge.i, label %.lr.ph.preheader.i

.lr.ph.preheader.i:                               ; preds = %.preheader.i, %.thread63.i
  %.06568.i = phi i32 [ %.0.i, %.preheader.i ], [ 128, %.thread63.i ]
  %30 = phi i32 [ %26, %.preheader.i ], [ %28, %.thread63.i ]
  br label %.lr.ph.i

.lr.ph.i:                                         ; preds = %.lr.ph.i, %.lr.ph.preheader.i
  %.03560.i = phi i32 [ %31, %.lr.ph.i ], [ %15, %.lr.ph.preheader.i ]
  %.159.i = phi i32 [ %32, %.lr.ph.i ], [ %6, %.lr.ph.preheader.i ]
  %.13958.i = phi i32 [ %38, %.lr.ph.i ], [ 0, %.lr.ph.preheader.i ]
  %31 = add nsw i32 %.03560.i, -1
  %32 = add i32 %.159.i, 1
  %33 = zext i32 %.159.i to i64
  %34 = getelementptr inbounds nuw i8, ptr %0, i64 %33
  %35 = load i8, ptr %34, align 1, !tbaa !3
  %36 = shl i32 %.13958.i, 8
  %37 = zext i8 %35 to i32
  %38 = or disjoint i32 %36, %37
  %.not.i = icmp eq i32 %31, 0
  br i1 %.not.i, label %._crit_edge.i, label %.lr.ph.i, !llvm.loop !35

._crit_edge.i:                                    ; preds = %.lr.ph.i, %.preheader.i
  %.06569.i = phi i32 [ %.0.i, %.preheader.i ], [ %.06568.i, %.lr.ph.i ]
  %.139.lcssa.i = phi i32 [ 0, %.preheader.i ], [ %38, %.lr.ph.i ]
  %.1.lcssa.i = phi i32 [ %6, %.preheader.i ], [ %30, %.lr.ph.i ]
  %39 = icmp sgt i32 %.139.lcssa.i, -1
  %40 = icmp sge i32 %.139.lcssa.i, %.06569.i
  %or.cond55.i = select i1 %39, i1 %40, i1 false
  br i1 %or.cond55.i, label %41, label %GetLength_ex.exit

41:                                               ; preds = %._crit_edge.i, %8
  %.240.i = phi i32 [ %12, %8 ], [ %.139.lcssa.i, %._crit_edge.i ]
  %.2.i = phi i32 [ %6, %8 ], [ %.1.lcssa.i, %._crit_edge.i ]
  %42 = add i32 %.2.i, %.240.i
  %43 = icmp ugt i32 %42, %3
  br i1 %43, label %GetLength_ex.exit, label %44

44:                                               ; preds = %41
  store i32 %.2.i, ptr %1, align 4, !tbaa !22
  %.not56.i = icmp eq i32 %.240.i, 0
  br i1 %.not56.i, label %GetLength_ex.exit, label %45

45:                                               ; preds = %44
  store i32 %.240.i, ptr %2, align 4, !tbaa !22
  br label %GetLength_ex.exit

GetLength_ex.exit:                                ; preds = %4, %19, %25, %.thread63.i, %._crit_edge.i, %41, %44, %45
  %.041.i = phi i32 [ -132, %4 ], [ -132, %41 ], [ %.240.i, %45 ], [ 0, %44 ], [ -140, %._crit_edge.i ], [ -132, %25 ], [ -140, %19 ], [ -132, %.thread63.i ]
  ret i32 %.041.i
}